; Function Attrs: alwaysinline norecurse nounwind uwtable
define internal void @_ZNK5faiss18IndexIDMapTemplateINS_5IndexEE6searchElPKflPfPlPKNS_16SearchParametersE.omp_outlined(ptr noalias noundef readonly captures(none) %0, ptr noalias readnone captures(none) %1, ptr noundef nonnull readonly align 8 captures(none) dereferenceable(8) %2, ptr noundef nonnull readonly align 8 captures(none) dereferenceable(8) %3, ptr noundef nonnull readonly align 8 captures(none) dereferenceable(8) %4, ptr noundef readonly captures(none) %5) #15 {
  %7 = alloca i64, align 8
  %8 = alloca i64, align 8
  %9 = alloca i64, align 8
  %10 = alloca i32, align 4
  %11 = load i64, ptr %2, align 8, !tbaa !29
  %12 = load i64, ptr %3, align 8, !tbaa !29
  %13 = mul nsw i64 %12, %11
  %14 = icmp sgt i64 %13, 0
  br i1 %14, label %15, label %35

15:                                               ; preds = %6
  %16 = add nsw i64 %13, -1
  call void @llvm.lifetime.start.p0(i64 8, ptr nonnull %7) #16
  store i64 0, ptr %7, align 8, !tbaa !29
  call void @llvm.lifetime.start.p0(i64 8, ptr nonnull %8) #16
  store i64 %16, ptr %8, align 8, !tbaa !29
  call void @llvm.lifetime.start.p0(i64 8, ptr nonnull %9) #16
  store i64 1, ptr %9, align 8, !tbaa !29
  call void @llvm.lifetime.start.p0(i64 4, ptr nonnull %10) #16
  store i32 0, ptr %10, align 4, !tbaa !92
  %17 = load i32, ptr %0, align 4, !tbaa !92
  call void @__kmpc_for_static_init_8(ptr nonnull @1, i32 %17, i32 34, ptr nonnull %10, ptr nonnull %7, ptr nonnull %8, ptr nonnull %9, i64 1, i64 1)
  %18 = load i64, ptr %8, align 8, !tbaa !29
  %19 = call i64 @llvm.smin.i64(i64 %18, i64 %16)
  store i64 %19, ptr %8, align 8, !tbaa !29
  %20 = load i64, ptr %7, align 8, !tbaa !29
  %.not18 = icmp sgt i64 %20, %19
  br i1 %.not18, label %._crit_edge, label %.lr.ph

.lr.ph:                                           ; preds = %15
  %21 = load ptr, ptr %4, align 8, !tbaa !48
  %22 = getelementptr inbounds nuw i8, ptr %5, i64 56
  br label %23

23:                                               ; preds = %.lr.ph, %31
  %.019 = phi i64 [ %20, %.lr.ph ], [ %33, %31 ]
  %24 = getelementptr inbounds i64, ptr %21, i64 %.019
  %25 = load i64, ptr %24, align 8, !tbaa !29
  %26 = icmp slt i64 %25, 0
  br i1 %26, label %31, label %27

27:                                               ; preds = %23
  %28 = load ptr, ptr %22, align 8, !tbaa !37
  %29 = getelementptr inbounds nuw i64, ptr %28, i64 %25
  %30 = load i64, ptr %29, align 8, !tbaa !29
  br label %31

31:                                               ; preds = %23, %27
  %32 = phi i64 [ %30, %27 ], [ %25, %23 ]
  store i64 %32, ptr %24, align 8, !tbaa !29
  %33 = add nsw i64 %.019, 1
  %34 = load i64, ptr %8, align 8, !tbaa !29
  %.not.not = icmp slt i64 %.019, %34
  br i1 %.not.not, label %23, label %._crit_edge

._crit_edge:                                      ; preds = %31, %15
  call void @__kmpc_for_static_fini(ptr nonnull @1, i32 %17)
  call void @llvm.lifetime.end.p0(i64 4, ptr nonnull %10) #16
  call void @llvm.lifetime.end.p0(i64 8, ptr nonnull %9) #16
  call void @llvm.lifetime.end.p0(i64 8, ptr nonnull %8) #16
  call void @llvm.lifetime.end.p0(i64 8, ptr nonnull %7) #16
  br label %35

35:                                               ; preds = %._crit_edge, %6
  ret void
}